target datalayout = "e-m:e-p270:32:32-p271:32:32-p272:64:64-i64:64-i128:128-f80:128-n8:16:32:64-S128"
target triple = "x86_64-pc-linux-gnu"

%class.ProtoTree = type { %class.QTreeView, ptr, %class.QMenu, %class.QMenu, %class.QList, i32, %class.QList.0, %class.QPoint, ptr, ptr }
%class.QTreeView = type { %class.QAbstractItemView }
%class.QAbstractItemView = type { %class.QAbstractScrollArea }
%class.QAbstractScrollArea = type { %class.QFrame }
%class.QFrame = type { %class.QWidget }
%class.QWidget = type { %class.QObject, %class.QPaintDevice.base, ptr }
%class.QObject = type { ptr, %class.QScopedPointer }
%class.QScopedPointer = type { ptr }
%class.QPaintDevice.base = type <{ ptr, i16 }>
%class.QMenu = type { %class.QWidget }
%class.QList = type { %struct.QArrayDataPointer }
%struct.QArrayDataPointer = type { ptr, ptr, i64 }
%class.QList.0 = type { %struct.QArrayDataPointer.3 }
%struct.QArrayDataPointer.3 = type { ptr, ptr, i64 }
%class.QPoint = type { i32, i32 }

@num_tree_types = external global i32, align 4

; Function Attrs: mustprogress null_pointer_is_valid sspstrong uwtable
define void @_ZN9ProtoTree18updateContentWidthEv(ptr noundef align 8 dereferenceable_or_null(208) %0) #0 align 2 {
  %2 = alloca ptr, align 8
  store ptr %0, ptr %2, align 8
  %3 = load ptr, ptr %2, align 8
  %4 = getelementptr inbounds nuw %class.ProtoTree, ptr %3, i32 0, i32 5
  %5 = load i32, ptr %4, align 8
  %6 = icmp eq i32 %5, 0
  br i1 %6, label %7, label %10

7:                                                ; preds = %1
  %8 = call noundef i32 @_ZN7QObject10startTimerEiN2Qt9TimerTypeE(ptr noundef align 8 dereferenceable_or_null(16) %3, i32 noundef 0, i32 noundef 1)
  %9 = getelementptr inbounds nuw %class.ProtoTree, ptr %3, i32 0, i32 5
  store i32 %8, ptr %9, align 8
  br label %10

10:                                               ; preds = %7, %1
  ret void
}

; Function Attrs: mustprogress null_pointer_is_valid sspstrong uwtable
define void @_ZN9ProtoTree11collapseAllEv(ptr noundef align 8 dereferenceable_or_null(208) %0) #0 align 2 {
  %2 = alloca ptr, align 8
  %3 = alloca i32, align 4
  store ptr %0, ptr %2, align 8
  %4 = load ptr, ptr %2, align 8
  call void @llvm.lifetime.start.p0(i64 4, ptr %3) #20
  store i32 0, ptr %3, align 4
  br label %5

5:                                                ; preds = %12, %1
  %6 = load i32, ptr %3, align 4
  %7 = load i32, ptr @num_tree_types, align 4
  %8 = icmp slt i32 %6, %7
  br i1 %8, label %10, label %9

9:                                                ; preds = %5
  call void @llvm.lifetime.end.p0(i64 4, ptr %3) #20
  br label %15

10:                                               ; preds = %5
  %11 = load i32, ptr %3, align 4
  call void @tree_expanded_set(i32 noundef %11, i1 noundef zeroext false)
  br label %12

12:                                               ; preds = %10
  %13 = load i32, ptr %3, align 4
  %14 = add i32 %13, 1
  store i32 %14, ptr %3, align 4
  br label %5, !llvm.loop !19

15:                                               ; preds = %9
  call void @_ZN9QTreeView11collapseAllEv(ptr noundef align 8 dereferenceable_or_null(40) %4)
  call void @_ZN9ProtoTree18updateContentWidthEv(ptr noundef align 8 dereferenceable_or_null(208) %4)
  ret void
}